target datalayout = "e-m:e-p270:32:32-p271:32:32-p272:64:64-i64:64-i128:128-f80:128-n8:16:32:64-S128"
target triple = "x86_64-unknown-linux-gnu"

@acpi_gbl_ps_node_cache = external dso_local local_unnamed_addr global ptr, align 8
@acpi_gbl_ps_node_ext_cache = external dso_local local_unnamed_addr global ptr, align 8
@acpi_gbl_current_scope = external dso_local local_unnamed_addr global ptr, align 8

; Function Attrs: fn_ret_thunk_extern nounwind null_pointer_is_valid
define dso_local ptr @acpi_ps_create_scope_op(ptr noundef %0) local_unnamed_addr #0 align 16 {
  %2 = tail call ptr @acpi_ps_alloc_op(i16 noundef zeroext 16, ptr noundef %0)
  %3 = icmp eq ptr %2, null
  br i1 %3, label %6, label %4

4:                                                ; preds = %1
  %5 = getelementptr inbounds i8, ptr %2, i64 76
  store i32 1600085852, ptr %5, align 4
  br label %6

6:                                                ; preds = %4, %1
  %7 = phi ptr [ %2, %4 ], [ null, %1 ]
  ret ptr %7
}

; Function Attrs: nocallback nofree nosync nounwind willreturn memory(argmem: readwrite)
declare void @llvm.lifetime.start.p0(i64 immarg, ptr nocapture) #1

; Function Attrs: fn_ret_thunk_extern nounwind null_pointer_is_valid
define dso_local ptr @acpi_ps_alloc_op(i16 noundef zeroext %0, ptr noundef %1) local_unnamed_addr #0 align 16 {
  %3 = alloca i64, align 8
  %4 = alloca i64, align 8
  %5 = tail call ptr @acpi_ps_get_opcode_info(i16 noundef zeroext %0) #7
  %6 = getelementptr inbounds i8, ptr %5, i64 8
  %7 = load i16, ptr %6, align 4
  %8 = zext i16 %7 to i32
  %9 = and i32 %8, 32
  %10 = icmp eq i32 %9, 0
  br i1 %10, label %11, label %17

11:                                               ; preds = %2
  %12 = and i32 %8, 64
  %13 = icmp eq i32 %12, 0
  br i1 %13, label %14, label %17

14:                                               ; preds = %11
  %15 = icmp ne i16 %0, 51
  %16 = select i1 %15, i8 1, i8 8
  br label %17

17:                                               ; preds = %14, %11, %2
  %18 = phi i1 [ false, %2 ], [ false, %11 ], [ %15, %14 ]
  %19 = phi i8 [ 4, %2 ], [ 2, %11 ], [ %16, %14 ]
  br i1 %18, label %20, label %23

20:                                               ; preds = %17
  %21 = load ptr, ptr @acpi_gbl_ps_node_cache, align 8
  call void @llvm.lifetime.start.p0(i64 8, ptr nonnull %4) #7
  store i64 0, ptr %4, align 8, !annotation !5
  call void asm sideeffect "# __raw_save_flags\0A\09pushf ; pop $0", "=*rm,~{memory},~{dirflag},~{fpsr},~{flags}"(ptr nonnull elementtype(i64) %4) #7, !srcloc !6
  %22 = load i64, ptr %4, align 8
  call void @llvm.lifetime.end.p0(i64 8, ptr nonnull %4) #7
  br label %26

23:                                               ; preds = %17
  %24 = load ptr, ptr @acpi_gbl_ps_node_ext_cache, align 8
  call void @llvm.lifetime.start.p0(i64 8, ptr nonnull %3) #7
  store i64 0, ptr %3, align 8, !annotation !5
  call void asm sideeffect "# __raw_save_flags\0A\09pushf ; pop $0", "=*rm,~{memory},~{dirflag},~{fpsr},~{flags}"(ptr nonnull elementtype(i64) %3) #7, !srcloc !6
  %25 = load i64, ptr %3, align 8
  call void @llvm.lifetime.end.p0(i64 8, ptr nonnull %3) #7
  br label %26

26:                                               ; preds = %23, %20
  %27 = phi i64 [ %25, %23 ], [ %22, %20 ]
  %28 = phi ptr [ %24, %23 ], [ %21, %20 ]
  %29 = and i64 %27, 512
  %30 = icmp eq i64 %29, 0
  %31 = select i1 %30, i32 2336, i32 3520
  %32 = call noalias align 8 ptr @kmem_cache_alloc(ptr noundef %28, i32 noundef %31) #7
  %33 = icmp eq ptr %32, null
  br i1 %33, label %41, label %34

34:                                               ; preds = %26
  %35 = getelementptr inbounds i8, ptr %32, i64 8
  store i8 13, ptr %35, align 8
  %36 = getelementptr inbounds i8, ptr %32, i64 10
  store i16 %0, ptr %36, align 2
  %37 = getelementptr inbounds i8, ptr %32, i64 16
  store ptr %1, ptr %37, align 8
  %38 = getelementptr inbounds i8, ptr %32, i64 9
  store i8 %19, ptr %38, align 1
  %39 = icmp eq i16 %0, 16
  br i1 %39, label %40, label %41

40:                                               ; preds = %34
  store ptr %32, ptr @acpi_gbl_current_scope, align 8
  br label %41

41:                                               ; preds = %40, %34, %26
  ret ptr %32
}

; Function Attrs: nocallback nofree nosync nounwind willreturn memory(argmem: readwrite)
declare void @llvm.lifetime.end.p0(i64 immarg, ptr nocapture) #1

; Function Attrs: fn_ret_thunk_extern mustprogress nofree norecurse nosync nounwind null_pointer_is_valid willreturn memory(argmem: write)
define dso_local void @acpi_ps_init_op(ptr nocapture noundef writeonly %0, i16 noundef zeroext %1) local_unnamed_addr #2 align 16 {
  %3 = getelementptr inbounds i8, ptr %0, i64 8
  store i8 13, ptr %3, align 8
  %4 = getelementptr inbounds i8, ptr %0, i64 10
  store i16 %1, ptr %4, align 2
  ret void
}

; Function Attrs: null_pointer_is_valid
declare dso_local ptr @acpi_ps_get_opcode_info(i16 noundef zeroext) local_unnamed_addr #3

; Function Attrs: fn_ret_thunk_extern nounwind null_pointer_is_valid
define dso_local void @acpi_ps_free_op(ptr noundef %0) local_unnamed_addr #0 align 16 {
  %2 = getelementptr inbounds i8, ptr %0, i64 9
  %3 = load i8, ptr %2, align 1
  %4 = and i8 %3, 1
  %5 = icmp eq i8 %4, 0
  %6 = load ptr, ptr @acpi_gbl_ps_node_ext_cache, align 8
  %7 = load ptr, ptr @acpi_gbl_ps_node_cache, align 8
  %8 = select i1 %5, ptr %6, ptr %7
  %9 = tail call i32 @acpi_os_release_object(ptr noundef %8, ptr noundef %0) #7
  ret void
}

; Function Attrs: null_pointer_is_valid
declare dso_local i32 @acpi_os_release_object(ptr noundef, ptr noundef) local_unnamed_addr #3

; Function Attrs: fn_ret_thunk_extern mustprogress nofree norecurse nosync nounwind null_pointer_is_valid willreturn memory(none)
define dso_local noundef zeroext i8 @acpi_ps_is_leading_char(i32 noundef %0) local_unnamed_addr #4 align 16 {
  %2 = icmp eq i32 %0, 95
  %3 = add i32 %0, -65
  %4 = icmp ult i32 %3, 26
  %5 = or i1 %2, %4
  %6 = zext i1 %5 to i8
  ret i8 %6
}

; Function Attrs: fn_ret_thunk_extern mustprogress nofree norecurse nosync nounwind null_pointer_is_valid willreturn memory(argmem: read)
define dso_local i32 @acpi_ps_get_name(ptr nocapture noundef readonly %0) local_unnamed_addr #5 align 16 {
  %2 = getelementptr inbounds i8, ptr %0, i64 9
  %3 = load i8, ptr %2, align 1
  %4 = and i8 %3, 1
  %5 = icmp eq i8 %4, 0
  br i1 %5, label %6, label %9

6:                                                ; preds = %1
  %7 = getelementptr inbounds i8, ptr %0, i64 76
  %8 = load i32, ptr %7, align 4
  br label %9

9:                                                ; preds = %6, %1
  %10 = phi i32 [ %8, %6 ], [ 0, %1 ]
  ret i32 %10
}

; Function Attrs: fn_ret_thunk_extern mustprogress nofree norecurse nosync nounwind null_pointer_is_valid willreturn memory(argmem: readwrite)
define dso_local void @acpi_ps_set_name(ptr nocapture noundef %0, i32 noundef %1) local_unnamed_addr #6 align 16 {
  %3 = getelementptr inbounds i8, ptr %0, i64 9
  %4 = load i8, ptr %3, align 1
  %5 = and i8 %4, 1
  %6 = icmp eq i8 %5, 0
  br i1 %6, label %7, label %9

7:                                                ; preds = %2
  %8 = getelementptr inbounds i8, ptr %0, i64 76
  store i32 %1, ptr %8, align 4
  br label %9

9:                                                ; preds = %7, %2
  ret void
}

; Function Attrs: null_pointer_is_valid
declare dso_local noalias ptr @kmem_cache_alloc(ptr noundef, i32 noundef) local_unnamed_addr #3


!llvm.module.flags = !{!0, !1, !2, !3, !4}

!0 = !{i32 1, !"wchar_size", i32 2}
!1 = !{i32 8, !"cf-protection-branch", i32 1}
!2 = !{i32 4, !"function_return_thunk_extern", i32 1}
!3 = !{i32 4, !"indirect_branch_cs_prefix", i32 1}
!4 = !{i32 4, !"SkipRaxSetup", i32 1}
!5 = !{!"auto-init"}
!6 = !{i64 1802563, i64 1802584}
