; ModuleID = 'bench/linux/original/psutils.ll'
source_filename = "bench/linux/original/psutils.ll"
target datalayout = "e-m:e-p270:32:32-p271:32:32-p272:64:64-i64:64-i128:128-f80:128-n8:16:32:64-S128"
target triple = "x86_64-unknown-linux-gnu"

@acpi_gbl_ps_node_cache = external dso_local local_unnamed_addr global ptr, align 8
@acpi_gbl_ps_node_ext_cache = external dso_local local_unnamed_addr global ptr, align 8
@acpi_gbl_current_scope = external dso_local local_unnamed_addr global ptr, align 8

; Function Attrs: fn_ret_thunk_extern nounwind null_pointer_is_valid
define dso_local ptr @acpi_ps_create_scope_op(ptr noundef %0) local_unnamed_addr #0 align 16 {
  %2 = alloca i64, align 8
  %3 = alloca i64, align 8
  %4 = tail call ptr @acpi_ps_get_opcode_info(i16 noundef zeroext 16) #7
  %5 = getelementptr inbounds i8, ptr %4, i64 8
  %6 = load i16, ptr %5, align 4
  %7 = zext i16 %6 to i32
  %8 = and i32 %7, 32
  %9 = icmp eq i32 %8, 0
  br i1 %9, label %10, label %.thread.i

10:                                               ; preds = %1
  %11 = and i32 %7, 64
  %12 = icmp eq i32 %11, 0
  br i1 %12, label %13, label %.thread.i

13:                                               ; preds = %10
  %14 = load ptr, ptr @acpi_gbl_ps_node_cache, align 8
  call void @llvm.lifetime.start.p0(i64 8, ptr nonnull %3) #7
  store i64 0, ptr %3, align 8, !annotation !5
  call void asm sideeffect "# __raw_save_flags\0A\09pushf ; pop $0", "=*rm,~{memory},~{dirflag},~{fpsr},~{flags}"(ptr nonnull elementtype(i64) %3) #7, !srcloc !6
  %15 = load i64, ptr %3, align 8
  call void @llvm.lifetime.end.p0(i64 8, ptr nonnull %3) #7
  br label %19

.thread.i:                                        ; preds = %10, %1
  %16 = phi i8 [ 2, %10 ], [ 4, %1 ]
  %17 = load ptr, ptr @acpi_gbl_ps_node_ext_cache, align 8
  call void @llvm.lifetime.start.p0(i64 8, ptr nonnull %2) #7
  store i64 0, ptr %2, align 8, !annotation !5
  call void asm sideeffect "# __raw_save_flags\0A\09pushf ; pop $0", "=*rm,~{memory},~{dirflag},~{fpsr},~{flags}"(ptr nonnull elementtype(i64) %2) #7, !srcloc !6
  %18 = load i64, ptr %2, align 8
  call void @llvm.lifetime.end.p0(i64 8, ptr nonnull %2) #7
  br label %19

19:                                               ; preds = %.thread.i, %13
  %20 = phi i8 [ %16, %.thread.i ], [ 1, %13 ]
  %21 = phi i64 [ %18, %.thread.i ], [ %15, %13 ]
  %22 = phi ptr [ %17, %.thread.i ], [ %14, %13 ]
  %23 = and i64 %21, 512
  %24 = icmp eq i64 %23, 0
  %25 = select i1 %24, i32 2336, i32 3520
  %26 = call noalias align 8 ptr @kmem_cache_alloc(ptr noundef %22, i32 noundef %25) #7
  %27 = icmp eq ptr %26, null
  br i1 %27, label %acpi_ps_alloc_op.exit.thread, label %28

28:                                               ; preds = %19
  %29 = getelementptr inbounds i8, ptr %26, i64 8
  store i8 13, ptr %29, align 8
  %30 = getelementptr inbounds i8, ptr %26, i64 10
  store i16 16, ptr %30, align 2
  %31 = getelementptr inbounds i8, ptr %26, i64 16
  store ptr %0, ptr %31, align 8
  %32 = getelementptr inbounds i8, ptr %26, i64 9
  store i8 %20, ptr %32, align 1
  store ptr %26, ptr @acpi_gbl_current_scope, align 8
  %33 = getelementptr inbounds i8, ptr %26, i64 76
  store i32 1600085852, ptr %33, align 4
  br label %acpi_ps_alloc_op.exit.thread

acpi_ps_alloc_op.exit.thread:                     ; preds = %19, %28
  ret ptr %26
}

; Function Attrs: mustprogress nocallback nofree nosync nounwind willreturn memory(argmem: readwrite)
declare void @llvm.lifetime.start.p0(i64 immarg, ptr nocapture) #1

; Function Attrs: fn_ret_thunk_extern nounwind null_pointer_is_valid
define dso_local ptr @acpi_ps_alloc_op(i16 noundef zeroext %0, ptr noundef %1) local_unnamed_addr #0 align 16 {
  %3 = alloca i64, align 8
  %4 = alloca i64, align 8
  %5 = tail call ptr @acpi_ps_get_opcode_info(i16 noundef zeroext %0) #7
  %6 = getelementptr inbounds i8, ptr %5, i64 8
  %7 = load i16, ptr %6, align 4
  %8 = zext i16 %7 to i32
  %9 = and i32 %8, 32
  %10 = icmp eq i32 %9, 0
  br i1 %10, label %11, label %.thread

11:                                               ; preds = %2
  %12 = and i32 %8, 64
  %13 = icmp eq i32 %12, 0
  br i1 %13, label %14, label %.thread

14:                                               ; preds = %11
  %.not = icmp eq i16 %0, 51
  br i1 %.not, label %.thread, label %15

15:                                               ; preds = %14
  %16 = load ptr, ptr @acpi_gbl_ps_node_cache, align 8
  call void @llvm.lifetime.start.p0(i64 8, ptr nonnull %4) #7
  store i64 0, ptr %4, align 8, !annotation !5
  call void asm sideeffect "# __raw_save_flags\0A\09pushf ; pop $0", "=*rm,~{memory},~{dirflag},~{fpsr},~{flags}"(ptr nonnull elementtype(i64) %4) #7, !srcloc !6
  %17 = load i64, ptr %4, align 8
  call void @llvm.lifetime.end.p0(i64 8, ptr nonnull %4) #7
  br label %21

.thread:                                          ; preds = %11, %2, %14
  %18 = phi i8 [ 8, %14 ], [ 2, %11 ], [ 4, %2 ]
  %19 = load ptr, ptr @acpi_gbl_ps_node_ext_cache, align 8
  call void @llvm.lifetime.start.p0(i64 8, ptr nonnull %3) #7
  store i64 0, ptr %3, align 8, !annotation !5
  call void asm sideeffect "# __raw_save_flags\0A\09pushf ; pop $0", "=*rm,~{memory},~{dirflag},~{fpsr},~{flags}"(ptr nonnull elementtype(i64) %3) #7, !srcloc !6
  %20 = load i64, ptr %3, align 8
  call void @llvm.lifetime.end.p0(i64 8, ptr nonnull %3) #7
  br label %21

21:                                               ; preds = %.thread, %15
  %22 = phi i8 [ %18, %.thread ], [ 1, %15 ]
  %23 = phi i64 [ %20, %.thread ], [ %17, %15 ]
  %24 = phi ptr [ %19, %.thread ], [ %16, %15 ]
  %25 = and i64 %23, 512
  %26 = icmp eq i64 %25, 0
  %27 = select i1 %26, i32 2336, i32 3520
  %28 = call noalias align 8 ptr @kmem_cache_alloc(ptr noundef %24, i32 noundef %27) #7
  %29 = icmp eq ptr %28, null
  br i1 %29, label %37, label %30

30:                                               ; preds = %21
  %31 = getelementptr inbounds i8, ptr %28, i64 8
  store i8 13, ptr %31, align 8
  %32 = getelementptr inbounds i8, ptr %28, i64 10
  store i16 %0, ptr %32, align 2
  %33 = getelementptr inbounds i8, ptr %28, i64 16
  store ptr %1, ptr %33, align 8
  %34 = getelementptr inbounds i8, ptr %28, i64 9
  store i8 %22, ptr %34, align 1
  %35 = icmp eq i16 %0, 16
  br i1 %35, label %36, label %37

36:                                               ; preds = %30
  store ptr %28, ptr @acpi_gbl_current_scope, align 8
  br label %37

37:                                               ; preds = %36, %30, %21
  ret ptr %28
}

; Function Attrs: mustprogress nocallback nofree nosync nounwind willreturn memory(argmem: readwrite)
declare void @llvm.lifetime.end.p0(i64 immarg, ptr nocapture) #1

; Function Attrs: fn_ret_thunk_extern mustprogress nofree norecurse nosync nounwind null_pointer_is_valid willreturn memory(argmem: write)
define dso_local void @acpi_ps_init_op(ptr nocapture noundef writeonly %0, i16 noundef zeroext %1) local_unnamed_addr #2 align 16 {
  %3 = getelementptr inbounds i8, ptr %0, i64 8
  store i8 13, ptr %3, align 8
  %4 = getelementptr inbounds i8, ptr %0, i64 10
  store i16 %1, ptr %4, align 2
  ret void
}

; Function Attrs: null_pointer_is_valid
declare dso_local ptr @acpi_ps_get_opcode_info(i16 noundef zeroext) local_unnamed_addr #3

; Function Attrs: fn_ret_thunk_extern nounwind null_pointer_is_valid
define dso_local void @acpi_ps_free_op(ptr noundef %0) local_unnamed_addr #0 align 16 {
  %2 = getelementptr inbounds i8, ptr %0, i64 9
  %3 = load i8, ptr %2, align 1
  %4 = and i8 %3, 1
  %5 = icmp eq i8 %4, 0
  %6 = load ptr, ptr @acpi_gbl_ps_node_ext_cache, align 8
  %7 = load ptr, ptr @acpi_gbl_ps_node_cache, align 8
  %8 = select i1 %5, ptr %6, ptr %7
  %9 = tail call i32 @acpi_os_release_object(ptr noundef %8, ptr noundef %0) #7
  ret void
}

; Function Attrs: null_pointer_is_valid
declare dso_local i32 @acpi_os_release_object(ptr noundef, ptr noundef) local_unnamed_addr #3

; Function Attrs: fn_ret_thunk_extern mustprogress nofree norecurse nosync nounwind null_pointer_is_valid willreturn memory(none)
define dso_local noundef zeroext i8 @acpi_ps_is_leading_char(i32 noundef %0) local_unnamed_addr #4 align 16 {
  %2 = icmp eq i32 %0, 95
  %3 = add i32 %0, -65
  %4 = icmp ult i32 %3, 26
  %5 = or i1 %2, %4
  %6 = zext i1 %5 to i8
  ret i8 %6
}

; Function Attrs: fn_ret_thunk_extern mustprogress nofree norecurse nosync nounwind null_pointer_is_valid willreturn memory(argmem: read)
define dso_local i32 @acpi_ps_get_name(ptr nocapture noundef readonly %0) local_unnamed_addr #5 align 16 {
  %2 = getelementptr inbounds i8, ptr %0, i64 9
  %3 = load i8, ptr %2, align 1
  %4 = and i8 %3, 1
  %5 = icmp eq i8 %4, 0
  br i1 %5, label %6, label %9

6:                                                ; preds = %1
  %7 = getelementptr inbounds i8, ptr %0, i64 76
  %8 = load i32, ptr %7, align 4
  br label %9

9:                                                ; preds = %6, %1
  %10 = phi i32 [ %8, %6 ], [ 0, %1 ]
  ret i32 %10
}

; Function Attrs: fn_ret_thunk_extern mustprogress nofree norecurse nosync nounwind null_pointer_is_valid willreturn memory(argmem: readwrite)
define dso_local void @acpi_ps_set_name(ptr nocapture noundef %0, i32 noundef %1) local_unnamed_addr #6 align 16 {
  %3 = getelementptr inbounds i8, ptr %0, i64 9
  %4 = load i8, ptr %3, align 1
  %5 = and i8 %4, 1
  %6 = icmp eq i8 %5, 0
  br i1 %6, label %7, label %9

7:                                                ; preds = %2
  %8 = getelementptr inbounds i8, ptr %0, i64 76
  store i32 %1, ptr %8, align 4
  br label %9

9:                                                ; preds = %7, %2
  ret void
}

; Function Attrs: null_pointer_is_valid
declare dso_local noalias ptr @kmem_cache_alloc(ptr noundef, i32 noundef) local_unnamed_addr #3


!llvm.module.flags = !{!0, !1, !2, !3, !4}

!0 = !{i32 1, !"wchar_size", i32 2}
!1 = !{i32 8, !"cf-protection-branch", i32 1}
!2 = !{i32 4, !"function_return_thunk_extern", i32 1}
!3 = !{i32 4, !"indirect_branch_cs_prefix", i32 1}
!4 = !{i32 4, !"SkipRaxSetup", i32 1}
!5 = !{!"auto-init"}
!6 = !{i64 1802563, i64 1802584}
